target datalayout = "e-m:e-p270:32:32-p271:32:32-p272:64:64-i64:64-i128:128-f80:128-n8:16:32:64-S128"
target triple = "x86_64-pc-linux-gnu"

%struct.sockaddr_un = type { i16, [108 x i8] }
%union.__CONST_SOCKADDR_ARG = type { ptr }
%union.__SOCKADDR_ARG = type { ptr }

@.str = private unnamed_addr constant [2 x i8] c"=\00", align 1
@.str.1 = private unnamed_addr constant [8 x i8] c"verbose\00", align 1
@verbose = internal global i8 0, align 1
@stderr = external global ptr, align 8
@.str.2 = private unnamed_addr constant [37 x i8] c"boolean argument parsing failed: %s\0A\00", align 1
@.str.3 = private unnamed_addr constant [9 x i8] c"sockpath\00", align 1
@.str.4 = private unnamed_addr constant [27 x i8] c"option parsing failed: %s\0A\00", align 1
@.str.5 = private unnamed_addr constant [47 x i8] c"Need a socket path to talk to other instance.\0A\00", align 1
@.str.6 = private unnamed_addr constant [44 x i8] c"Failed to setup socket for communications.\0A\00", align 1
@our_id = internal global i64 0, align 8
@.str.7 = private unnamed_addr constant [14 x i8] c"create socket\00", align 1
@.str.8 = private unnamed_addr constant [9 x i8] c"bad path\00", align 1
@.str.9 = private unnamed_addr constant [18 x i8] c"failed to connect\00", align 1
@.str.10 = private unnamed_addr constant [23 x i8] c"connect_socket::ready\0A\00", align 1
@socket_fd = internal global i32 0, align 4
@.str.11 = private unnamed_addr constant [12 x i8] c"bind socket\00", align 1
@path_to_unlink = internal global ptr null, align 8
@.str.12 = private unnamed_addr constant [14 x i8] c"listen socket\00", align 1
@.str.13 = private unnamed_addr constant [14 x i8] c"accept socket\00", align 1
@.str.14 = private unnamed_addr constant [21 x i8] c"setup_socket::ready\0A\00", align 1

; Function Attrs: nounwind sspstrong uwtable
define internal zeroext i1 @setup_socket(ptr noundef %0) #0 {
  %2 = alloca i1, align 1
  %3 = alloca ptr, align 8
  %4 = alloca %struct.sockaddr_un, align 2
  %5 = alloca i64, align 8
  %6 = alloca i32, align 4
  %7 = alloca i32, align 4
  %8 = alloca %union.__CONST_SOCKADDR_ARG, align 8
  %9 = alloca %union.__SOCKADDR_ARG, align 8
  store ptr %0, ptr %3, align 8
  call void @llvm.lifetime.start.p0(i64 110, ptr %4) #11
  call void @llvm.memset.p0.i64(ptr align 2 %4, i8 0, i64 110, i1 false), !annotation !3
  call void @llvm.lifetime.start.p0(i64 8, ptr %5) #11
  store i64 107, ptr %5, align 8
  call void @llvm.lifetime.start.p0(i64 4, ptr %6) #11
  store i32 0, ptr %6, align 4, !annotation !3
  %10 = call i32 @socket(i32 noundef 1, i32 noundef 1, i32 noundef 0) #11
  store i32 %10, ptr %6, align 4
  %11 = load i32, ptr %6, align 4
  %12 = icmp slt i32 %11, 0
  br i1 %12, label %13, label %14

13:                                               ; preds = %1
  call void @perror(ptr noundef @.str.7)
  store i1 false, ptr %2, align 1
  store i32 1, ptr %7, align 4
  br label %59

14:                                               ; preds = %1
  %15 = getelementptr inbounds nuw %struct.sockaddr_un, ptr %4, i32 0, i32 0
  store i16 1, ptr %15, align 2
  %16 = getelementptr inbounds nuw %struct.sockaddr_un, ptr %4, i32 0, i32 1
  %17 = getelementptr inbounds [108 x i8], ptr %16, i64 0, i64 0
  %18 = load ptr, ptr %3, align 8
  %19 = call i64 @g_strlcpy(ptr noundef %17, ptr noundef %18, i64 noundef 107)
  %20 = icmp uge i64 %19, 107
  br i1 %20, label %21, label %24

21:                                               ; preds = %14
  call void @perror(ptr noundef @.str.8)
  %22 = load i32, ptr %6, align 4
  %23 = call i32 @close(i32 noundef %22)
  store i1 false, ptr %2, align 1
  store i32 1, ptr %7, align 4
  br label %59

24:                                               ; preds = %14
  %25 = load i32, ptr %6, align 4
  store ptr %4, ptr %8, align 8
  %26 = getelementptr inbounds nuw %union.__CONST_SOCKADDR_ARG, ptr %8, i32 0, i32 0
  %27 = load ptr, ptr %26, align 8
  %28 = call i32 @bind(i32 noundef %25, ptr %27, i32 noundef 110) #11
  %29 = icmp slt i32 %28, 0
  br i1 %29, label %30, label %33

30:                                               ; preds = %24
  call void @perror(ptr noundef @.str.11)
  %31 = load i32, ptr %6, align 4
  %32 = call i32 @close(i32 noundef %31)
  store i1 false, ptr %2, align 1
  store i32 1, ptr %7, align 4
  br label %59

33:                                               ; preds = %24
  %34 = load ptr, ptr %3, align 8
  %35 = call noalias ptr @g_strdup(ptr noundef %34)
  store ptr %35, ptr @path_to_unlink, align 8
  %36 = load i32, ptr %6, align 4
  %37 = call i32 @listen(i32 noundef %36, i32 noundef 1) #11
  %38 = icmp slt i32 %37, 0
  br i1 %38, label %39, label %42

39:                                               ; preds = %33
  call void @perror(ptr noundef @.str.12)
  %40 = load i32, ptr %6, align 4
  %41 = call i32 @close(i32 noundef %40)
  store i1 false, ptr %2, align 1
  store i32 1, ptr %7, align 4
  br label %59

42:                                               ; preds = %33
  %43 = load i32, ptr %6, align 4
  store ptr null, ptr %9, align 8
  %44 = getelementptr inbounds nuw %union.__SOCKADDR_ARG, ptr %9, i32 0, i32 0
  %45 = load ptr, ptr %44, align 8
  %46 = call i32 @accept(i32 noundef %43, ptr %45, ptr noundef null)
  store i32 %46, ptr @socket_fd, align 4
  %47 = load i32, ptr @socket_fd, align 4
  %48 = icmp slt i32 %47, 0
  br i1 %48, label %49, label %56

49:                                               ; preds = %42
  %50 = call ptr @__errno_location() #14
  %51 = load i32, ptr %50, align 4
  %52 = icmp ne i32 %51, 4
  br i1 %52, label %53, label %56

53:                                               ; preds = %49
  call void @perror(ptr noundef @.str.13)
  %54 = load i32, ptr %6, align 4
  %55 = call i32 @close(i32 noundef %54)
  store i1 false, ptr %2, align 1
  store i32 1, ptr %7, align 4
  br label %59

56:                                               ; preds = %49, %42
  call void @qemu_plugin_outs(ptr noundef @.str.14)
  %57 = load i32, ptr %6, align 4
  %58 = call i32 @close(i32 noundef %57)
  store i1 true, ptr %2, align 1
  store i32 1, ptr %7, align 4
  br label %59

59:                                               ; preds = %56, %53, %39, %30, %21, %13
  call void @llvm.lifetime.end.p0(i64 4, ptr %6) #11
  call void @llvm.lifetime.end.p0(i64 8, ptr %5) #11
  call void @llvm.lifetime.end.p0(i64 110, ptr %4) #11
  %60 = load i1, ptr %2, align 1
  ret i1 %60
}

; Function Attrs: nounwind sspstrong uwtable
define internal zeroext i1 @connect_socket(ptr noundef %0) #0 {
  %2 = alloca i1, align 1
  %3 = alloca ptr, align 8
  %4 = alloca i32, align 4
  %5 = alloca %struct.sockaddr_un, align 2
  %6 = alloca i64, align 8
  %7 = alloca i32, align 4
  %8 = alloca %union.__CONST_SOCKADDR_ARG, align 8
  store ptr %0, ptr %3, align 8
  call void @llvm.lifetime.start.p0(i64 4, ptr %4) #11
  store i32 0, ptr %4, align 4, !annotation !3
  call void @llvm.lifetime.start.p0(i64 110, ptr %5) #11
  call void @llvm.memset.p0.i64(ptr align 2 %5, i8 0, i64 110, i1 false), !annotation !3
  call void @llvm.lifetime.start.p0(i64 8, ptr %6) #11
  store i64 107, ptr %6, align 8
  %9 = call i32 @socket(i32 noundef 1, i32 noundef 1, i32 noundef 0) #11
  store i32 %9, ptr %4, align 4
  %10 = load i32, ptr %4, align 4
  %11 = icmp slt i32 %10, 0
  br i1 %11, label %12, label %13

12:                                               ; preds = %1
  call void @perror(ptr noundef @.str.7)
  store i1 false, ptr %2, align 1
  store i32 1, ptr %7, align 4
  br label %34

13:                                               ; preds = %1
  %14 = getelementptr inbounds nuw %struct.sockaddr_un, ptr %5, i32 0, i32 0
  store i16 1, ptr %14, align 2
  %15 = getelementptr inbounds nuw %struct.sockaddr_un, ptr %5, i32 0, i32 1
  %16 = getelementptr inbounds [108 x i8], ptr %15, i64 0, i64 0
  %17 = load ptr, ptr %3, align 8
  %18 = call i64 @g_strlcpy(ptr noundef %16, ptr noundef %17, i64 noundef 107)
  %19 = icmp uge i64 %18, 107
  br i1 %19, label %20, label %23

20:                                               ; preds = %13
  call void @perror(ptr noundef @.str.8)
  %21 = load i32, ptr %4, align 4
  %22 = call i32 @close(i32 noundef %21)
  store i1 false, ptr %2, align 1
  store i32 1, ptr %7, align 4
  br label %34

23:                                               ; preds = %13
  %24 = load i32, ptr %4, align 4
  store ptr %5, ptr %8, align 8
  %25 = getelementptr inbounds nuw %union.__CONST_SOCKADDR_ARG, ptr %8, i32 0, i32 0
  %26 = load ptr, ptr %25, align 8
  %27 = call i32 @connect(i32 noundef %24, ptr %26, i32 noundef 110)
  %28 = icmp slt i32 %27, 0
  br i1 %28, label %29, label %32

29:                                               ; preds = %23
  call void @perror(ptr noundef @.str.9)
  %30 = load i32, ptr %4, align 4
  %31 = call i32 @close(i32 noundef %30)
  store i1 false, ptr %2, align 1
  store i32 1, ptr %7, align 4
  br label %34

32:                                               ; preds = %23
  call void @qemu_plugin_outs(ptr noundef @.str.10)
  %33 = load i32, ptr %4, align 4
  store i32 %33, ptr @socket_fd, align 4
  store i1 true, ptr %2, align 1
  store i32 1, ptr %7, align 4
  br label %34

34:                                               ; preds = %32, %29, %20, %12
  call void @llvm.lifetime.end.p0(i64 8, ptr %6) #11
  call void @llvm.lifetime.end.p0(i64 110, ptr %5) #11
  call void @llvm.lifetime.end.p0(i64 4, ptr %4) #11
  %35 = load i1, ptr %2, align 1
  ret i1 %35
}

; Function Attrs: inlinehint nounwind sspstrong uwtable
define internal void @g_autoptr_cleanup_generic_gfree(ptr noundef %0) #2 {
  %2 = alloca ptr, align 8
  %3 = alloca ptr, align 8
  store ptr %0, ptr %2, align 8
  call void @llvm.lifetime.start.p0(i64 8, ptr %3) #11
  %4 = load ptr, ptr %2, align 8
  store ptr %4, ptr %3, align 8
  %5 = load ptr, ptr %3, align 8
  %6 = load ptr, ptr %5, align 8
  call void @g_free(ptr noundef %6)
  call void @llvm.lifetime.end.p0(i64 8, ptr %3) #11
  ret void
}

; Function Attrs: nounwind sspstrong uwtable
define internal zeroext i1 @setup_unix_socket(ptr noundef %0) #0 {
  %2 = alloca i1, align 1
  %3 = alloca ptr, align 8
  store ptr %0, ptr %3, align 8
  %4 = load ptr, ptr %3, align 8
  %5 = call i32 @g_file_test(ptr noundef %4, i32 noundef 16)
  %6 = icmp ne i32 %5, 0
  br i1 %6, label %7, label %10

7:                                                ; preds = %1
  %8 = load ptr, ptr %3, align 8
  %9 = call zeroext i1 @connect_socket(ptr noundef %8)
  store i1 %9, ptr %2, align 1
  br label %13

10:                                               ; preds = %1
  %11 = load ptr, ptr %3, align 8
  %12 = call zeroext i1 @setup_socket(ptr noundef %11)
  store i1 %12, ptr %2, align 1
  br label %13

13:                                               ; preds = %10, %7
  %14 = load i1, ptr %2, align 1
  ret i1 %14
}

; Function Attrs: inlinehint nounwind sspstrong uwtable
define internal void @glib_auto_cleanup_GStrv(ptr noundef %0) #2 {
  %2 = alloca ptr, align 8
  store ptr %0, ptr %2, align 8
  %3 = load ptr, ptr %2, align 8
  %4 = load ptr, ptr %3, align 8
  %5 = icmp ne ptr %4, null
  br i1 %5, label %6, label %9

6:                                                ; preds = %1
  %7 = load ptr, ptr %2, align 8
  %8 = load ptr, ptr %7, align 8
  call void @g_strfreev(ptr noundef %8)
  br label %9

9:                                                ; preds = %6, %1
  ret void
}

; Function Attrs: nounwind sspstrong uwtable
define i32 @qemu_plugin_install(i64 noundef %0, ptr noundef %1, i32 noundef %2, ptr noundef %3) #0 {
  %5 = alloca i32, align 4
  %6 = alloca i64, align 8
  %7 = alloca ptr, align 8
  %8 = alloca i32, align 4
  %9 = alloca ptr, align 8
  %10 = alloca i32, align 4
  %11 = alloca ptr, align 8
  %12 = alloca ptr, align 8
  %13 = alloca ptr, align 8
  %14 = alloca i32, align 4
  store i64 %0, ptr %6, align 8
  store ptr %1, ptr %7, align 8
  store i32 %2, ptr %8, align 4
  store ptr %3, ptr %9, align 8
  call void @llvm.lifetime.start.p0(i64 4, ptr %10) #11
  store i32 0, ptr %10, align 4, !annotation !3
  call void @llvm.lifetime.start.p0(i64 8, ptr %11) #11
  store ptr null, ptr %11, align 8
  store i32 0, ptr %10, align 4
  br label %15

15:                                               ; preds = %65, %4
  %16 = load i32, ptr %10, align 4
  %17 = load i32, ptr %8, align 4
  %18 = icmp slt i32 %16, %17
  br i1 %18, label %19, label %68

19:                                               ; preds = %15
  call void @llvm.lifetime.start.p0(i64 8, ptr %12) #11
  %20 = load ptr, ptr %9, align 8
  %21 = load i32, ptr %10, align 4
  %22 = sext i32 %21 to i64
  %23 = getelementptr inbounds ptr, ptr %20, i64 %22
  %24 = load ptr, ptr %23, align 8
  store ptr %24, ptr %12, align 8
  call void @llvm.lifetime.start.p0(i64 8, ptr %13) #11
  %25 = load ptr, ptr %12, align 8
  %26 = call ptr @g_strsplit(ptr noundef %25, ptr noundef @.str, i32 noundef 2)
  store ptr %26, ptr %13, align 8
  %27 = load ptr, ptr %13, align 8
  %28 = getelementptr inbounds ptr, ptr %27, i64 0
  %29 = load ptr, ptr %28, align 8
  %30 = call i32 @g_strcmp0(ptr noundef %29, ptr noundef @.str.1)
  %31 = icmp eq i32 %30, 0
  br i1 %31, label %32, label %45

32:                                               ; preds = %19
  %33 = load ptr, ptr %13, align 8
  %34 = getelementptr inbounds ptr, ptr %33, i64 0
  %35 = load ptr, ptr %34, align 8
  %36 = load ptr, ptr %13, align 8
  %37 = getelementptr inbounds ptr, ptr %36, i64 1
  %38 = load ptr, ptr %37, align 8
  %39 = call zeroext i1 @qemu_plugin_bool_parse(ptr noundef %35, ptr noundef %38, ptr noundef @verbose)
  br i1 %39, label %44, label %40

40:                                               ; preds = %32
  %41 = load ptr, ptr @stderr, align 8
  %42 = load ptr, ptr %12, align 8
  %43 = call i32 (ptr, ptr, ...) @fprintf(ptr noundef %41, ptr noundef @.str.2, ptr noundef %42) #11
  store i32 -1, ptr %5, align 4
  store i32 1, ptr %14, align 4
  br label %62

44:                                               ; preds = %32
  br label %61

45:                                               ; preds = %19
  %46 = load ptr, ptr %13, align 8
  %47 = getelementptr inbounds ptr, ptr %46, i64 0
  %48 = load ptr, ptr %47, align 8
  %49 = call i32 @g_strcmp0(ptr noundef %48, ptr noundef @.str.3)
  %50 = icmp eq i32 %49, 0
  br i1 %50, label %51, label %56

51:                                               ; preds = %45
  %52 = load ptr, ptr %13, align 8
  %53 = getelementptr inbounds ptr, ptr %52, i64 1
  %54 = load ptr, ptr %53, align 8
  %55 = call noalias ptr @g_strdup(ptr noundef %54)
  store ptr %55, ptr %11, align 8
  br label %60

56:                                               ; preds = %45
  %57 = load ptr, ptr @stderr, align 8
  %58 = load ptr, ptr %12, align 8
  %59 = call i32 (ptr, ptr, ...) @fprintf(ptr noundef %57, ptr noundef @.str.4, ptr noundef %58) #11
  store i32 -1, ptr %5, align 4
  store i32 1, ptr %14, align 4
  br label %62

60:                                               ; preds = %51
  br label %61

61:                                               ; preds = %60, %44
  store i32 0, ptr %14, align 4
  br label %62

62:                                               ; preds = %61, %56, %40
  call void @glib_auto_cleanup_GStrv(ptr noundef %13)
  call void @llvm.lifetime.end.p0(i64 8, ptr %13) #11
  call void @llvm.lifetime.end.p0(i64 8, ptr %12) #11
  %63 = load i32, ptr %14, align 4
  switch i32 %63, label %84 [
    i32 0, label %64
  ]

64:                                               ; preds = %62
  br label %65

65:                                               ; preds = %64
  %66 = load i32, ptr %10, align 4
  %67 = add i32 %66, 1
  store i32 %67, ptr %10, align 4
  br label %15, !llvm.loop !4

68:                                               ; preds = %15
  %69 = load ptr, ptr %11, align 8
  %70 = icmp eq ptr %69, null
  br i1 %70, label %71, label %74

71:                                               ; preds = %68
  %72 = load ptr, ptr @stderr, align 8
  %73 = call i32 (ptr, ptr, ...) @fprintf(ptr noundef %72, ptr noundef @.str.5) #11
  store i32 -1, ptr %5, align 4
  store i32 1, ptr %14, align 4
  br label %84

74:                                               ; preds = %68
  %75 = load ptr, ptr %11, align 8
  %76 = call zeroext i1 @setup_unix_socket(ptr noundef %75)
  br i1 %76, label %80, label %77

77:                                               ; preds = %74
  %78 = load ptr, ptr @stderr, align 8
  %79 = call i32 (ptr, ptr, ...) @fprintf(ptr noundef %78, ptr noundef @.str.6) #11
  store i32 -1, ptr %5, align 4
  store i32 1, ptr %14, align 4
  br label %84

80:                                               ; preds = %74
  %81 = load i64, ptr %6, align 8
  store i64 %81, ptr @our_id, align 8
  %82 = load i64, ptr %6, align 8
  call void @qemu_plugin_register_vcpu_tb_trans_cb(i64 noundef %82, ptr noundef @vcpu_tb_trans)
  %83 = load i64, ptr %6, align 8
  call void @qemu_plugin_register_atexit_cb(i64 noundef %83, ptr noundef @plugin_exit, ptr noundef null)
  store i32 0, ptr %5, align 4
  store i32 1, ptr %14, align 4
  br label %84

84:                                               ; preds = %80, %77, %71, %62
  call void @g_autoptr_cleanup_generic_gfree(ptr noundef %11)
  call void @llvm.lifetime.end.p0(i64 8, ptr %11) #11
  call void @llvm.lifetime.end.p0(i64 4, ptr %10) #11
  %85 = load i32, ptr %5, align 4
  ret i32 %85
}