; Function Attrs: nounwind sspstrong uwtable
define range(i32 -1, 1) i32 @qemu_plugin_install(i64 noundef %0, ptr noundef readnone captures(none) %1, i32 noundef %2, ptr noundef readonly captures(none) %3) local_unnamed_addr #0 {
  %5 = alloca %struct.sockaddr_un, align 2
  %6 = alloca %struct.sockaddr_un, align 2
  %7 = icmp sgt i32 %2, 0
  br i1 %7, label %.lr.ph.preheader, label %._crit_edge.thread

.lr.ph.preheader:                                 ; preds = %4
  %wide.trip.count = zext nneg i32 %2 to i64
  br label %.lr.ph

.lr.ph:                                           ; preds = %.lr.ph.preheader, %glib_auto_cleanup_GStrv.exit
  %indvars.iv = phi i64 [ 0, %.lr.ph.preheader ], [ %indvars.iv.next, %glib_auto_cleanup_GStrv.exit ]
  %.033 = phi ptr [ null, %.lr.ph.preheader ], [ %.1, %glib_auto_cleanup_GStrv.exit ]
  %8 = getelementptr inbounds nuw ptr, ptr %3, i64 %indvars.iv
  %9 = load ptr, ptr %8, align 8
  %10 = tail call ptr @g_strsplit(ptr noundef %9, ptr noundef nonnull @.str, i32 noundef 2) #11
  %11 = load ptr, ptr %10, align 8
  %12 = tail call i32 @g_strcmp0(ptr noundef %11, ptr noundef nonnull @.str.1) #11
  %13 = icmp eq i32 %12, 0
  %14 = load ptr, ptr %10, align 8
  br i1 %13, label %15, label %19

15:                                               ; preds = %.lr.ph
  %16 = getelementptr inbounds nuw i8, ptr %10, i64 8
  %17 = load ptr, ptr %16, align 8
  %18 = tail call zeroext i1 @qemu_plugin_bool_parse(ptr noundef %14, ptr noundef %17, ptr noundef nonnull @verbose) #11
  br i1 %18, label %glib_auto_cleanup_GStrv.exit, label %glib_auto_cleanup_GStrv.exit19

19:                                               ; preds = %.lr.ph
  %20 = tail call i32 @g_strcmp0(ptr noundef %14, ptr noundef nonnull @.str.3) #11
  %21 = icmp eq i32 %20, 0
  br i1 %21, label %22, label %glib_auto_cleanup_GStrv.exit19

22:                                               ; preds = %19
  %23 = getelementptr inbounds nuw i8, ptr %10, i64 8
  %24 = load ptr, ptr %23, align 8
  %25 = tail call noalias ptr @g_strdup(ptr noundef %24) #11
  br label %glib_auto_cleanup_GStrv.exit

glib_auto_cleanup_GStrv.exit:                     ; preds = %22, %15
  %.1 = phi ptr [ %.033, %15 ], [ %25, %22 ]
  tail call void @g_strfreev(ptr noundef nonnull %10) #11
  %indvars.iv.next = add nuw nsw i64 %indvars.iv, 1
  %exitcond.not = icmp eq i64 %indvars.iv.next, %wide.trip.count
  br i1 %exitcond.not, label %._crit_edge, label %.lr.ph, !llvm.loop !3

._crit_edge:                                      ; preds = %glib_auto_cleanup_GStrv.exit
  %26 = icmp eq ptr %.1, null
  br i1 %26, label %._crit_edge.thread, label %29

._crit_edge.thread:                               ; preds = %4, %._crit_edge
  %27 = load ptr, ptr @stderr, align 8
  %28 = tail call i64 @fwrite(ptr nonnull @.str.5, i64 46, i64 1, ptr %27) #12
  br label %82

29:                                               ; preds = %._crit_edge
  %30 = tail call i32 @g_file_test(ptr noundef nonnull %.1, i32 noundef 16) #11
  %.not.i17 = icmp eq i32 %30, 0
  br i1 %.not.i17, label %46, label %31

31:                                               ; preds = %29
  call void @llvm.lifetime.start.p0(i64 110, ptr nonnull %6) #11
  %32 = tail call i32 @socket(i32 noundef 1, i32 noundef 1, i32 noundef 0) #11
  %33 = icmp slt i32 %32, 0
  br i1 %33, label %34, label %35

34:                                               ; preds = %31
  tail call void @perror(ptr noundef nonnull @.str.7) #12
  br label %connect_socket.exit.i.thread

35:                                               ; preds = %31
  %36 = getelementptr inbounds nuw i8, ptr %6, i64 2
  call void @llvm.memset.p0.i64(ptr noundef nonnull align 2 dereferenceable(110) %36, i8 0, i64 108, i1 false), !annotation !5
  store i16 1, ptr %6, align 2
  %37 = call i64 @g_strlcpy(ptr noundef nonnull %36, ptr noundef nonnull %.1, i64 noundef 107) #11
  %38 = icmp ugt i64 %37, 106
  br i1 %38, label %39, label %41

39:                                               ; preds = %35
  call void @perror(ptr noundef nonnull @.str.8) #12
  %40 = call i32 @close(i32 noundef %32) #11
  br label %connect_socket.exit.i.thread

41:                                               ; preds = %35
  %42 = call i32 @connect(i32 noundef %32, ptr nonnull %6, i32 noundef 110) #11
  %43 = icmp slt i32 %42, 0
  br i1 %43, label %44, label %connect_socket.exit.i

44:                                               ; preds = %41
  call void @perror(ptr noundef nonnull @.str.9) #12
  %45 = call i32 @close(i32 noundef %32) #11
  br label %connect_socket.exit.i.thread

connect_socket.exit.i.thread:                     ; preds = %34, %39, %44
  call void @llvm.lifetime.end.p0(i64 110, ptr nonnull %6) #11
  br label %76

connect_socket.exit.i:                            ; preds = %41
  call void @qemu_plugin_outs(ptr noundef nonnull @.str.10) #11
  store i32 %32, ptr @socket_fd, align 4
  call void @llvm.lifetime.end.p0(i64 110, ptr nonnull %6) #11
  br label %79

46:                                               ; preds = %29
  call void @llvm.lifetime.start.p0(i64 110, ptr nonnull %5) #11
  %47 = tail call i32 @socket(i32 noundef 1, i32 noundef 1, i32 noundef 0) #11
  %48 = icmp slt i32 %47, 0
  br i1 %48, label %49, label %50

49:                                               ; preds = %46
  tail call void @perror(ptr noundef nonnull @.str.7) #12
  br label %setup_unix_socket.exit.thread

50:                                               ; preds = %46
  %51 = getelementptr inbounds nuw i8, ptr %5, i64 2
  call void @llvm.memset.p0.i64(ptr noundef nonnull align 2 dereferenceable(110) %51, i8 0, i64 108, i1 false), !annotation !5
  store i16 1, ptr %5, align 2
  %52 = call i64 @g_strlcpy(ptr noundef nonnull %51, ptr noundef nonnull %.1, i64 noundef 107) #11
  %53 = icmp ugt i64 %52, 106
  br i1 %53, label %54, label %56

54:                                               ; preds = %50
  call void @perror(ptr noundef nonnull @.str.8) #12
  %55 = call i32 @close(i32 noundef %47) #11
  br label %setup_unix_socket.exit.thread

56:                                               ; preds = %50
  %57 = call i32 @bind(i32 noundef %47, ptr nonnull %5, i32 noundef 110) #11
  %58 = icmp slt i32 %57, 0
  br i1 %58, label %59, label %61

59:                                               ; preds = %56
  call void @perror(ptr noundef nonnull @.str.11) #12
  %60 = call i32 @close(i32 noundef %47) #11
  br label %setup_unix_socket.exit.thread

61:                                               ; preds = %56
  %62 = call noalias ptr @g_strdup(ptr noundef nonnull %.1) #11
  store ptr %62, ptr @path_to_unlink, align 8
  %63 = call i32 @listen(i32 noundef %47, i32 noundef 1) #11
  %64 = icmp slt i32 %63, 0
  br i1 %64, label %65, label %67

65:                                               ; preds = %61
  call void @perror(ptr noundef nonnull @.str.12) #12
  %66 = call i32 @close(i32 noundef %47) #11
  br label %setup_unix_socket.exit.thread

67:                                               ; preds = %61
  %68 = call i32 @accept(i32 noundef %47, ptr null, ptr noundef null) #11
  store i32 %68, ptr @socket_fd, align 4
  %69 = icmp slt i32 %68, 0
  br i1 %69, label %70, label %setup_unix_socket.exit

70:                                               ; preds = %67
  %71 = tail call ptr @__errno_location() #13
  %72 = load i32, ptr %71, align 4
  %.not.i.i = icmp eq i32 %72, 4
  br i1 %.not.i.i, label %setup_unix_socket.exit, label %73

73:                                               ; preds = %70
  call void @perror(ptr noundef nonnull @.str.13) #12
  %74 = call i32 @close(i32 noundef %47) #11
  br label %setup_unix_socket.exit.thread

setup_unix_socket.exit.thread:                    ; preds = %49, %54, %59, %65, %73
  call void @llvm.lifetime.end.p0(i64 110, ptr nonnull %5) #11
  br label %76

setup_unix_socket.exit:                           ; preds = %67, %70
  call void @qemu_plugin_outs(ptr noundef nonnull @.str.14) #11
  %75 = call i32 @close(i32 noundef %47) #11
  call void @llvm.lifetime.end.p0(i64 110, ptr nonnull %5) #11
  br label %79

76:                                               ; preds = %connect_socket.exit.i.thread, %setup_unix_socket.exit.thread
  %77 = load ptr, ptr @stderr, align 8
  %78 = call i64 @fwrite(ptr nonnull @.str.6, i64 43, i64 1, ptr %77) #12
  br label %82

79:                                               ; preds = %connect_socket.exit.i, %setup_unix_socket.exit
  store i64 %0, ptr @our_id, align 8
  call void @qemu_plugin_register_vcpu_tb_trans_cb(i64 noundef %0, ptr noundef nonnull @vcpu_tb_trans) #11
  call void @qemu_plugin_register_atexit_cb(i64 noundef %0, ptr noundef nonnull @plugin_exit, ptr noundef null) #11
  br label %82

glib_auto_cleanup_GStrv.exit19:                   ; preds = %19, %15
  %.str.4.sink = phi ptr [ @.str.2, %15 ], [ @.str.4, %19 ]
  %80 = load ptr, ptr @stderr, align 8
  %81 = tail call i32 (ptr, ptr, ...) @fprintf(ptr noundef %80, ptr noundef nonnull %.str.4.sink, ptr noundef %9) #14
  tail call void @g_strfreev(ptr noundef nonnull %10) #11
  br label %82

82:                                               ; preds = %glib_auto_cleanup_GStrv.exit19, %79, %76, %._crit_edge.thread
  %.027 = phi ptr [ null, %._crit_edge.thread ], [ %.1, %79 ], [ %.1, %76 ], [ %.033, %glib_auto_cleanup_GStrv.exit19 ]
  %.2 = phi i32 [ -1, %._crit_edge.thread ], [ 0, %79 ], [ -1, %76 ], [ -1, %glib_auto_cleanup_GStrv.exit19 ]
  call void @g_free(ptr noundef %.027) #11
  ret i32 %.2
}